(dp1
S'pt_login_sig'
p2
S'SpIYGZ6BzI9-7vZYWcXlGrxeTtLvd8SAL5c2AQbeWfT96lyL2jyGFalrtqilR2SD'
p3
sS'ptisp'
p4
S'ctc'
p5
sS'pt4_token'
p6
S'bX0kl1PPkj549YoBe3Sk*98H6uyYZ7EP98TMcUGYBmM_'
p7
sS'skey'
p8
S'@KH8wRIFWr'
p9
sS'RK'
p10
S'qLU7YdK3S2'
p11
sS'ptui_identifier'
p12
S'000D4A788F58DB1F9AF012F067FB9B012406DAF541BDC384DA50AE3A3A'
p13
sS'u_659030105'
p14
S'@KH8wRIFWr:1468309128:1468309128:e28094526564756e64616e6379e28094:0'
p15
sS'qrsig'
p16
S'BhdBwfCEX8gf8J24GNiYTAr8o349U6HtOxmPpWV62etCzEpJpdnEzkPj*IcTbYE0'
p17
sS'pt_serverip'
p18
S'f39f0af17164365d'
p19
sS'uin'
p20
S'o0659030105'
p21
sS'p_uin'
p22
S'o0659030105'
p23
sS'supertoken'
p24
S'1008437642'
p25
sS'pt2gguin'
p26
S'o0659030105'
p27
sS'ptwebqq'
p28
S'9a9fffea0551c546cd70f092e08df62eb8a9297650339dd7226dfe121f69c5ab'
p29
sS'pt_user_id'
p30
S'13422108988760756838'
p31
sS'ETK'
p32
S''
sS'pt_clientip'
p33
S'36540adb9b797672'
p34
sS'superuin'
p35
S'o0659030105'
p36
sS'p_skey'
p37
S'crB9kZCgBsbezaSEtXsYbP066r9qggEpbytzVsiieUs_'
p38
sS'superkey'
p39
S'8OofYIx4t0VxHhmg6mXdE5PNphqYOceaNy4DRYPvlEY_'
p40
sS'ptnick_659030105'
p41
S'e28094526564756e64616e6379e28094'
p42
s.
