(dp1
S'pt_login_sig'
p2
S'qaTKzK3p20GSc2MMuOqFp13j3cGYGwY9YPY-JzuHLgROKiTbh5KmTQ8Gu5QWS1Pc'
p3
sS'ptisp'
p4
S'ctc'
p5
sS'pt4_token'
p6
S'7GczCgTXyWJ5BWvUZaXUgc45qvSJ8bjj5vMWb-2S9ac_'
p7
sS'skey'
p8
S'@KH8wRIFWr'
p9
sS'RK'
p10
S'yDV7Z/KnTW'
p11
sS'ptui_identifier'
p12
S'000DF040C5D704C48388EACB8328E30771ABE41F3B59AA080AD6CF51'
p13
sS'u_659030105'
p14
S'@KH8wRIFWr:1468330143:1468330143:e28094526564756e64616e6379e28094:0'
p15
sS'qrsig'
p16
S'BOygFFOfP43yz2kZcIOScmT6pkGwabnCtJNVmZgyNQw50IOEs-HMoRb*95-3mUgI'
p17
sS'pt_serverip'
p18
S'22230aa687ccf2fd'
p19
sS'uin'
p20
S'o0659030105'
p21
sS'p_uin'
p22
S'o0659030105'
p23
sS'supertoken'
p24
S'1970899992'
p25
sS'pt2gguin'
p26
S'o0659030105'
p27
sS'ptwebqq'
p28
S'13859d5d4d7ccb373967e35e446c76386b456a1984fd7acae44a6d92480abefe'
p29
sS'pt_user_id'
p30
S'2421330111671153773'
p31
sS'ETK'
p32
S''
sS'pt_clientip'
p33
S'e2a40af0891cface'
p34
sS'superuin'
p35
S'o0659030105'
p36
sS'p_skey'
p37
S'Ic-xczWDqKkc*BrnNvwk8Ce4Za0F1i2SfA4lfhWu9b8_'
p38
sS'superkey'
p39
S'kKvg1-wL1OiwBxIDCzH5TUVZ4WdxKtdeNlM7un-IU88_'
p40
sS'ptnick_659030105'
p41
S'e28094526564756e64616e6379e28094'
p42
s.